target datalayout = "e-m:e-p270:32:32-p271:32:32-p272:64:64-i64:64-i128:128-f80:128-n8:16:32:64-S128"
target triple = "x86_64-pc-linux-gnu"

%struct.UConverterImpl = type { i32, ptr, ptr, ptr, ptr, ptr, ptr, ptr, ptr, ptr, ptr, ptr, ptr, ptr, ptr, ptr, ptr, ptr }
%struct.UConverterSharedData = type { i32, i32, ptr, ptr, i8, i8, ptr, i32, %struct.UConverterMBCSTable }
%struct.UConverterMBCSTable = type { i8, i8, i8, i32, ptr, ptr, ptr, ptr, ptr, ptr, [64 x i16], ptr, ptr, i32, i8, i8, i8, i16, i32, ptr, ptr, ptr, ptr }
%struct.UConverter = type { ptr, ptr, ptr, ptr, ptr, ptr, ptr, i32, i8, i8, i8, i8, i8, [7 x i8], i32, i32, i32, i32, i8, i8, i8, i8, i8, i8, i8, i8, [8 x i8], [32 x i8], [2 x i16], [2 x i16], [32 x i16], i32, [19 x i16], [31 x i8], i8, i8, i8, i32 }
%struct.UConverterDataISO2022 = type { [10 x ptr], ptr, i32, %struct.ISO2022State, %struct.ISO2022State, i32, i32, i8, [30 x i8], [3 x i8] }
%struct.ISO2022State = type { [4 x i8], i8, i8 }
%struct.USetAdder = type { ptr, ptr, ptr, ptr, ptr, ptr }

@_ZL14jpCharsetMasks = internal constant [5 x i16] [i16 281, i16 313, i16 511, i16 511, i16 511], align 2

; Function Attrs: inlinehint mustprogress nounwind uwtable
define internal noundef signext i8 @_ZL9U_FAILURE10UErrorCode(i32 noundef %0) #9 {
  %2 = alloca i32, align 4
  store i32 %0, ptr %2, align 4, !tbaa !28
  %3 = load i32, ptr %2, align 4, !tbaa !28
  %4 = icmp sgt i32 %3, 0
  %5 = zext i1 %4 to i8
  ret i8 %5
}

; Function Attrs: mustprogress uwtable
define internal void @_ZL23_ISO_2022_GetUnicodeSetPK10UConverterPK9USetAdder20UConverterUnicodeSetP10UErrorCode(ptr noundef %0, ptr noundef %1, i32 noundef %2, ptr noundef %3) #0 {
  %5 = alloca ptr, align 8
  %6 = alloca ptr, align 8
  %7 = alloca i32, align 4
  %8 = alloca ptr, align 8
  %9 = alloca i32, align 4
  %10 = alloca ptr, align 8
  %11 = alloca i32, align 4
  %12 = alloca i32, align 4
  store ptr %0, ptr %5, align 8, !tbaa !3
  store ptr %1, ptr %6, align 8, !tbaa !76
  store i32 %2, ptr %7, align 4, !tbaa !78
  store ptr %3, ptr %8, align 8, !tbaa !8
  call void @llvm.lifetime.start.p0(i64 4, ptr %9) #11
  call void @llvm.lifetime.start.p0(i64 8, ptr %10) #11
  %13 = load ptr, ptr %8, align 8, !tbaa !8
  %14 = load i32, ptr %13, align 4, !tbaa !28
  %15 = call noundef signext i8 @_ZL9U_FAILURE10UErrorCode(i32 noundef %14)
  %16 = icmp ne i8 %15, 0
  br i1 %16, label %17, label %18

17:                                               ; preds = %4
  store i32 1, ptr %11, align 4
  br label %201

18:                                               ; preds = %4
  %19 = load ptr, ptr %5, align 8, !tbaa !3
  %20 = getelementptr inbounds nuw %struct.UConverter, ptr %19, i32 0, i32 2
  %21 = load ptr, ptr %20, align 8, !tbaa !9
  store ptr %21, ptr %10, align 8, !tbaa !8
  %22 = load ptr, ptr %10, align 8, !tbaa !8
  %23 = getelementptr inbounds nuw %struct.UConverterDataISO2022, ptr %22, i32 0, i32 9
  %24 = getelementptr inbounds [3 x i8], ptr %23, i64 0, i64 0
  %25 = load i8, ptr %24, align 1, !tbaa !27
  %26 = sext i8 %25 to i32
  switch i32 %26, label %107 [
    i32 106, label %27
    i32 99, label %84
    i32 122, label %84
    i32 107, label %91
  ]

27:                                               ; preds = %18
  %28 = load ptr, ptr %6, align 8, !tbaa !76
  %29 = getelementptr inbounds nuw %struct.USetAdder, ptr %28, i32 0, i32 1
  %30 = load ptr, ptr %29, align 8, !tbaa !80
  %31 = load ptr, ptr %6, align 8, !tbaa !76
  %32 = getelementptr inbounds nuw %struct.USetAdder, ptr %31, i32 0, i32 0
  %33 = load ptr, ptr %32, align 8, !tbaa !83
  call void %30(ptr noundef %33, i32 noundef 165)
  %34 = load ptr, ptr %6, align 8, !tbaa !76
  %35 = getelementptr inbounds nuw %struct.USetAdder, ptr %34, i32 0, i32 1
  %36 = load ptr, ptr %35, align 8, !tbaa !80
  %37 = load ptr, ptr %6, align 8, !tbaa !76
  %38 = getelementptr inbounds nuw %struct.USetAdder, ptr %37, i32 0, i32 0
  %39 = load ptr, ptr %38, align 8, !tbaa !83
  call void %36(ptr noundef %39, i32 noundef 8254)
  %40 = load ptr, ptr %10, align 8, !tbaa !8
  %41 = getelementptr inbounds nuw %struct.UConverterDataISO2022, ptr %40, i32 0, i32 6
  %42 = load i32, ptr %41, align 4, !tbaa !26
  %43 = zext i32 %42 to i64
  %44 = getelementptr inbounds nuw [5 x i16], ptr @_ZL14jpCharsetMasks, i64 0, i64 %43
  %45 = load i16, ptr %44, align 2, !tbaa !30
  %46 = zext i16 %45 to i32
  %47 = and i32 %46, 2
  %48 = icmp ne i32 %47, 0
  br i1 %48, label %49, label %56

49:                                               ; preds = %27
  %50 = load ptr, ptr %6, align 8, !tbaa !76
  %51 = getelementptr inbounds nuw %struct.USetAdder, ptr %50, i32 0, i32 2
  %52 = load ptr, ptr %51, align 8, !tbaa !84
  %53 = load ptr, ptr %6, align 8, !tbaa !76
  %54 = getelementptr inbounds nuw %struct.USetAdder, ptr %53, i32 0, i32 0
  %55 = load ptr, ptr %54, align 8, !tbaa !83
  call void %52(ptr noundef %55, i32 noundef 0, i32 noundef 255)
  br label %63

56:                                               ; preds = %27
  %57 = load ptr, ptr %6, align 8, !tbaa !76
  %58 = getelementptr inbounds nuw %struct.USetAdder, ptr %57, i32 0, i32 2
  %59 = load ptr, ptr %58, align 8, !tbaa !84
  %60 = load ptr, ptr %6, align 8, !tbaa !76
  %61 = getelementptr inbounds nuw %struct.USetAdder, ptr %60, i32 0, i32 0
  %62 = load ptr, ptr %61, align 8, !tbaa !83
  call void %59(ptr noundef %62, i32 noundef 0, i32 noundef 127)
  br label %63

63:                                               ; preds = %56, %49
  %64 = load ptr, ptr %10, align 8, !tbaa !8
  %65 = getelementptr inbounds nuw %struct.UConverterDataISO2022, ptr %64, i32 0, i32 6
  %66 = load i32, ptr %65, align 4, !tbaa !26
  %67 = icmp eq i32 %66, 3
  br i1 %67, label %76, label %68

68:                                               ; preds = %63
  %69 = load ptr, ptr %10, align 8, !tbaa !8
  %70 = getelementptr inbounds nuw %struct.UConverterDataISO2022, ptr %69, i32 0, i32 6
  %71 = load i32, ptr %70, align 4, !tbaa !26
  %72 = icmp eq i32 %71, 4
  br i1 %72, label %76, label %73

73:                                               ; preds = %68
  %74 = load i32, ptr %7, align 4, !tbaa !78
  %75 = icmp eq i32 %74, 1
  br i1 %75, label %76, label %83

76:                                               ; preds = %73, %68, %63
  %77 = load ptr, ptr %6, align 8, !tbaa !76
  %78 = getelementptr inbounds nuw %struct.USetAdder, ptr %77, i32 0, i32 2
  %79 = load ptr, ptr %78, align 8, !tbaa !84
  %80 = load ptr, ptr %6, align 8, !tbaa !76
  %81 = getelementptr inbounds nuw %struct.USetAdder, ptr %80, i32 0, i32 0
  %82 = load ptr, ptr %81, align 8, !tbaa !83
  call void %79(ptr noundef %82, i32 noundef 65377, i32 noundef 65439)
  br label %83

83:                                               ; preds = %76, %73
  br label %108

84:                                               ; preds = %18, %18
  %85 = load ptr, ptr %6, align 8, !tbaa !76
  %86 = getelementptr inbounds nuw %struct.USetAdder, ptr %85, i32 0, i32 2
  %87 = load ptr, ptr %86, align 8, !tbaa !84
  %88 = load ptr, ptr %6, align 8, !tbaa !76
  %89 = getelementptr inbounds nuw %struct.USetAdder, ptr %88, i32 0, i32 0
  %90 = load ptr, ptr %89, align 8, !tbaa !83
  call void %87(ptr noundef %90, i32 noundef 0, i32 noundef 127)
  br label %108

91:                                               ; preds = %18
  %92 = load ptr, ptr %10, align 8, !tbaa !8
  %93 = getelementptr inbounds nuw %struct.UConverterDataISO2022, ptr %92, i32 0, i32 1
  %94 = load ptr, ptr %93, align 8, !tbaa !36
  %95 = getelementptr inbounds nuw %struct.UConverter, ptr %94, i32 0, i32 6
  %96 = load ptr, ptr %95, align 8, !tbaa !32
  %97 = getelementptr inbounds nuw %struct.UConverterSharedData, ptr %96, i32 0, i32 6
  %98 = load ptr, ptr %97, align 8, !tbaa !85
  %99 = getelementptr inbounds nuw %struct.UConverterImpl, ptr %98, i32 0, i32 15
  %100 = load ptr, ptr %99, align 8, !tbaa !86
  %101 = load ptr, ptr %10, align 8, !tbaa !8
  %102 = getelementptr inbounds nuw %struct.UConverterDataISO2022, ptr %101, i32 0, i32 1
  %103 = load ptr, ptr %102, align 8, !tbaa !36
  %104 = load ptr, ptr %6, align 8, !tbaa !76
  %105 = load i32, ptr %7, align 4, !tbaa !78
  %106 = load ptr, ptr %8, align 8, !tbaa !8
  call void %100(ptr noundef %103, ptr noundef %104, i32 noundef %105, ptr noundef %106)
  br label %108

107:                                              ; preds = %18
  br label %108

108:                                              ; preds = %107, %91, %84, %83
  store i32 0, ptr %9, align 4, !tbaa !25
  br label %109

109:                                              ; preds = %173, %108
  %110 = load i32, ptr %9, align 4, !tbaa !25
  %111 = icmp slt i32 %110, 10
  br i1 %111, label %112, label %176

112:                                              ; preds = %109
  call void @llvm.lifetime.start.p0(i64 4, ptr %12) #11
  %113 = load ptr, ptr %10, align 8, !tbaa !8
  %114 = getelementptr inbounds nuw %struct.UConverterDataISO2022, ptr %113, i32 0, i32 0
  %115 = load i32, ptr %9, align 4, !tbaa !25
  %116 = sext i32 %115 to i64
  %117 = getelementptr inbounds [10 x ptr], ptr %114, i64 0, i64 %116
  %118 = load ptr, ptr %117, align 8, !tbaa !31
  %119 = icmp ne ptr %118, null
  br i1 %119, label %120, label %172

120:                                              ; preds = %112
  %121 = load ptr, ptr %10, align 8, !tbaa !8
  %122 = getelementptr inbounds nuw %struct.UConverterDataISO2022, ptr %121, i32 0, i32 9
  %123 = getelementptr inbounds [3 x i8], ptr %122, i64 0, i64 0
  %124 = load i8, ptr %123, align 1, !tbaa !27
  %125 = sext i8 %124 to i32
  %126 = icmp eq i32 %125, 106
  br i1 %126, label %127, label %131

127:                                              ; preds = %120
  %128 = load i32, ptr %9, align 4, !tbaa !25
  %129 = icmp eq i32 %128, 4
  br i1 %129, label %130, label %131

130:                                              ; preds = %127
  store i32 3, ptr %12, align 4, !tbaa !89
  br label %161

131:                                              ; preds = %127, %120
  %132 = load ptr, ptr %10, align 8, !tbaa !8
  %133 = getelementptr inbounds nuw %struct.UConverterDataISO2022, ptr %132, i32 0, i32 9
  %134 = getelementptr inbounds [3 x i8], ptr %133, i64 0, i64 0
  %135 = load i8, ptr %134, align 1, !tbaa !27
  %136 = sext i8 %135 to i32
  %137 = icmp eq i32 %136, 99
  br i1 %137, label %145, label %138

138:                                              ; preds = %131
  %139 = load ptr, ptr %10, align 8, !tbaa !8
  %140 = getelementptr inbounds nuw %struct.UConverterDataISO2022, ptr %139, i32 0, i32 9
  %141 = getelementptr inbounds [3 x i8], ptr %140, i64 0, i64 0
  %142 = load i8, ptr %141, align 1, !tbaa !27
  %143 = sext i8 %142 to i32
  %144 = icmp eq i32 %143, 122
  br i1 %144, label %145, label %154

145:                                              ; preds = %138, %131
  %146 = load ptr, ptr %10, align 8, !tbaa !8
  %147 = getelementptr inbounds nuw %struct.UConverterDataISO2022, ptr %146, i32 0, i32 6
  %148 = load i32, ptr %147, align 4, !tbaa !26
  %149 = icmp eq i32 %148, 0
  br i1 %149, label %150, label %154

150:                                              ; preds = %145
  %151 = load i32, ptr %9, align 4, !tbaa !25
  %152 = icmp eq i32 %151, 3
  br i1 %152, label %153, label %154

153:                                              ; preds = %150
  store i32 2, ptr %12, align 4, !tbaa !89
  br label %160

154:                                              ; preds = %150, %145, %138
  %155 = load i32, ptr %9, align 4, !tbaa !25
  %156 = icmp eq i32 %155, 7
  br i1 %156, label %157, label %158

157:                                              ; preds = %154
  store i32 4, ptr %12, align 4, !tbaa !89
  br label %159

158:                                              ; preds = %154
  store i32 0, ptr %12, align 4, !tbaa !89
  br label %159

159:                                              ; preds = %158, %157
  br label %160

160:                                              ; preds = %159, %153
  br label %161

161:                                              ; preds = %160, %130
  %162 = load ptr, ptr %10, align 8, !tbaa !8
  %163 = getelementptr inbounds nuw %struct.UConverterDataISO2022, ptr %162, i32 0, i32 0
  %164 = load i32, ptr %9, align 4, !tbaa !25
  %165 = sext i32 %164 to i64
  %166 = getelementptr inbounds [10 x ptr], ptr %163, i64 0, i64 %165
  %167 = load ptr, ptr %166, align 8, !tbaa !31
  %168 = load ptr, ptr %6, align 8, !tbaa !76
  %169 = load i32, ptr %7, align 4, !tbaa !78
  %170 = load i32, ptr %12, align 4, !tbaa !89
  %171 = load ptr, ptr %8, align 8, !tbaa !8
  call void @ucnv_MBCSGetFilteredUnicodeSetForUnicode_77(ptr noundef %167, ptr noundef %168, i32 noundef %169, i32 noundef %170, ptr noundef %171)
  br label %172

172:                                              ; preds = %161, %112
  call void @llvm.lifetime.end.p0(i64 4, ptr %12) #11
  br label %173

173:                                              ; preds = %172
  %174 = load i32, ptr %9, align 4, !tbaa !25
  %175 = add nsw i32 %174, 1
  store i32 %175, ptr %9, align 4, !tbaa !25
  br label %109, !llvm.loop !91

176:                                              ; preds = %109
  %177 = load ptr, ptr %6, align 8, !tbaa !76
  %178 = getelementptr inbounds nuw %struct.USetAdder, ptr %177, i32 0, i32 4
  %179 = load ptr, ptr %178, align 8, !tbaa !92
  %180 = load ptr, ptr %6, align 8, !tbaa !76
  %181 = getelementptr inbounds nuw %struct.USetAdder, ptr %180, i32 0, i32 0
  %182 = load ptr, ptr %181, align 8, !tbaa !83
  call void %179(ptr noundef %182, i32 noundef 14)
  %183 = load ptr, ptr %6, align 8, !tbaa !76
  %184 = getelementptr inbounds nuw %struct.USetAdder, ptr %183, i32 0, i32 4
  %185 = load ptr, ptr %184, align 8, !tbaa !92
  %186 = load ptr, ptr %6, align 8, !tbaa !76
  %187 = getelementptr inbounds nuw %struct.USetAdder, ptr %186, i32 0, i32 0
  %188 = load ptr, ptr %187, align 8, !tbaa !83
  call void %185(ptr noundef %188, i32 noundef 15)
  %189 = load ptr, ptr %6, align 8, !tbaa !76
  %190 = getelementptr inbounds nuw %struct.USetAdder, ptr %189, i32 0, i32 4
  %191 = load ptr, ptr %190, align 8, !tbaa !92
  %192 = load ptr, ptr %6, align 8, !tbaa !76
  %193 = getelementptr inbounds nuw %struct.USetAdder, ptr %192, i32 0, i32 0
  %194 = load ptr, ptr %193, align 8, !tbaa !83
  call void %191(ptr noundef %194, i32 noundef 27)
  %195 = load ptr, ptr %6, align 8, !tbaa !76
  %196 = getelementptr inbounds nuw %struct.USetAdder, ptr %195, i32 0, i32 5
  %197 = load ptr, ptr %196, align 8, !tbaa !93
  %198 = load ptr, ptr %6, align 8, !tbaa !76
  %199 = getelementptr inbounds nuw %struct.USetAdder, ptr %198, i32 0, i32 0
  %200 = load ptr, ptr %199, align 8, !tbaa !83
  call void %197(ptr noundef %200, i32 noundef 128, i32 noundef 159)
  store i32 0, ptr %11, align 4
  br label %201

201:                                              ; preds = %176, %17
  call void @llvm.lifetime.end.p0(i64 8, ptr %10) #11
  call void @llvm.lifetime.end.p0(i64 4, ptr %9) #11
  %202 = load i32, ptr %11, align 4
  switch i32 %202, label %204 [
    i32 0, label %203
    i32 1, label %203
  ]

203:                                              ; preds = %201, %201
  ret void

204:                                              ; preds = %201
  unreachable
}