; Function Attrs: mustprogress uwtable
define internal void @_ZL23_ISO_2022_GetUnicodeSetPK10UConverterPK9USetAdder20UConverterUnicodeSetP10UErrorCode(ptr noundef readonly captures(none) %0, ptr noundef %1, i32 noundef %2, ptr noundef %3) #0 {
  %5 = load i32, ptr %3, align 4, !tbaa !24
  %6 = icmp slt i32 %5, 1
  br i1 %6, label %7, label %74

7:                                                ; preds = %4
  %8 = getelementptr inbounds nuw i8, ptr %0, i64 16
  %9 = load ptr, ptr %8, align 8, !tbaa !3
  %10 = getelementptr inbounds nuw i8, ptr %9, i64 143
  %11 = load i8, ptr %10, align 1, !tbaa !23
  switch i8 %11, label %45 [
    i8 106, label %12
    i8 99, label %32
    i8 122, label %32
    i8 107, label %36
  ]

12:                                               ; preds = %7
  %13 = getelementptr inbounds nuw i8, ptr %1, i64 8
  %14 = load ptr, ptr %13, align 8, !tbaa !62
  %15 = load ptr, ptr %1, align 8, !tbaa !65
  tail call void %14(ptr noundef %15, i32 noundef 165)
  %16 = load ptr, ptr %13, align 8, !tbaa !62
  %17 = load ptr, ptr %1, align 8, !tbaa !65
  tail call void %16(ptr noundef %17, i32 noundef 8254)
  %18 = getelementptr inbounds nuw i8, ptr %9, i64 108
  %19 = load i32, ptr %18, align 4, !tbaa !18
  %.not56 = icmp ult i32 %19, 2
  %20 = getelementptr inbounds nuw i8, ptr %1, i64 16
  %21 = load ptr, ptr %20, align 8, !tbaa !66
  %22 = load ptr, ptr %1, align 8, !tbaa !65
  %.61 = select i1 %.not56, i32 127, i32 255
  tail call void %21(ptr noundef %22, i32 noundef 0, i32 noundef %.61)
  %23 = load i32, ptr %18, align 4, !tbaa !18
  %24 = icmp eq i32 %23, 3
  br i1 %24, label %28, label %25

25:                                               ; preds = %12
  %26 = icmp eq i32 %23, 4
  %27 = icmp eq i32 %2, 1
  %or.cond = or i1 %27, %26
  br i1 %or.cond, label %28, label %45

28:                                               ; preds = %25, %12
  %29 = getelementptr inbounds nuw i8, ptr %1, i64 16
  %30 = load ptr, ptr %29, align 8, !tbaa !66
  %31 = load ptr, ptr %1, align 8, !tbaa !65
  tail call void %30(ptr noundef %31, i32 noundef 65377, i32 noundef 65439)
  br label %45

32:                                               ; preds = %7, %7
  %33 = getelementptr inbounds nuw i8, ptr %1, i64 16
  %34 = load ptr, ptr %33, align 8, !tbaa !66
  %35 = load ptr, ptr %1, align 8, !tbaa !65
  tail call void %34(ptr noundef %35, i32 noundef 0, i32 noundef 127)
  br label %45

36:                                               ; preds = %7
  %37 = getelementptr inbounds nuw i8, ptr %9, i64 80
  %38 = load ptr, ptr %37, align 8, !tbaa !28
  %39 = getelementptr inbounds nuw i8, ptr %38, i64 48
  %40 = load ptr, ptr %39, align 8, !tbaa !27
  %41 = getelementptr inbounds nuw i8, ptr %40, i64 32
  %42 = load ptr, ptr %41, align 8, !tbaa !67
  %43 = getelementptr inbounds nuw i8, ptr %42, i64 120
  %44 = load ptr, ptr %43, align 8, !tbaa !68
  tail call void %44(ptr noundef %38, ptr noundef %1, i32 noundef %2, ptr noundef nonnull %3)
  br label %45

45:                                               ; preds = %7, %28, %25, %36, %32
  %46 = getelementptr inbounds nuw i8, ptr %9, i64 108
  br label %47

47:                                               ; preds = %45, %62
  %indvars.iv = phi i64 [ 0, %45 ], [ %indvars.iv.next, %62 ]
  %48 = getelementptr inbounds nuw [10 x ptr], ptr %9, i64 0, i64 %indvars.iv
  %49 = load ptr, ptr %48, align 8, !tbaa !26
  %.not57 = icmp eq ptr %49, null
  br i1 %.not57, label %62, label %50

50:                                               ; preds = %47
  %51 = load i8, ptr %10, align 1, !tbaa !23
  %52 = icmp eq i8 %51, 106
  %53 = icmp eq i64 %indvars.iv, 4
  %or.cond3 = and i1 %53, %52
  br i1 %or.cond3, label %61, label %54

54:                                               ; preds = %50
  switch i8 %51, label %59 [
    i8 99, label %55
    i8 122, label %55
  ]

55:                                               ; preds = %54, %54
  %56 = load i32, ptr %46, align 4, !tbaa !18
  %57 = icmp eq i32 %56, 0
  %58 = icmp eq i64 %indvars.iv, 3
  %or.cond5 = and i1 %58, %57
  br i1 %or.cond5, label %61, label %59

59:                                               ; preds = %54, %55
  %60 = icmp eq i64 %indvars.iv, 7
  %. = select i1 %60, i32 4, i32 0
  br label %61

61:                                               ; preds = %59, %55, %50
  %.0 = phi i32 [ 3, %50 ], [ 2, %55 ], [ %., %59 ]
  tail call void @ucnv_MBCSGetFilteredUnicodeSetForUnicode_77(ptr noundef nonnull %49, ptr noundef %1, i32 noundef %2, i32 noundef %.0, ptr noundef nonnull %3)
  br label %62

62:                                               ; preds = %61, %47
  %indvars.iv.next = add nuw nsw i64 %indvars.iv, 1
  %exitcond.not = icmp eq i64 %indvars.iv.next, 10
  br i1 %exitcond.not, label %63, label %47, !llvm.loop !71

63:                                               ; preds = %62
  %64 = getelementptr inbounds nuw i8, ptr %1, i64 32
  %65 = load ptr, ptr %64, align 8, !tbaa !72
  %66 = load ptr, ptr %1, align 8, !tbaa !65
  tail call void %65(ptr noundef %66, i32 noundef 14)
  %67 = load ptr, ptr %64, align 8, !tbaa !72
  %68 = load ptr, ptr %1, align 8, !tbaa !65
  tail call void %67(ptr noundef %68, i32 noundef 15)
  %69 = load ptr, ptr %64, align 8, !tbaa !72
  %70 = load ptr, ptr %1, align 8, !tbaa !65
  tail call void %69(ptr noundef %70, i32 noundef 27)
  %71 = getelementptr inbounds nuw i8, ptr %1, i64 40
  %72 = load ptr, ptr %71, align 8, !tbaa !73
  %73 = load ptr, ptr %1, align 8, !tbaa !65
  tail call void %72(ptr noundef %73, i32 noundef 128, i32 noundef 159)
  br label %74

74:                                               ; preds = %4, %63
  ret void
}